; Function Attrs: mustprogress uwtable
define hidden noundef ptr @_ZN4ncnn3Net19create_custom_layerEPKc(ptr noundef nonnull align 8 dereferenceable(80) %0, ptr noundef %1) unnamed_addr #2 align 2 {
  %3 = load ptr, ptr %0, align 8, !tbaa !4
  %4 = getelementptr inbounds nuw i8, ptr %3, i64 16
  %5 = load ptr, ptr %4, align 8
  %6 = tail call noundef i32 %5(ptr noundef nonnull align 8 dereferenceable(80) %0, ptr noundef %1)
  %7 = icmp eq i32 %6, -1
  br i1 %7, label %13, label %8

8:                                                ; preds = %2
  %9 = load ptr, ptr %0, align 8, !tbaa !4
  %10 = getelementptr inbounds nuw i8, ptr %9, i64 40
  %11 = load ptr, ptr %10, align 8
  %12 = tail call noundef ptr %11(ptr noundef nonnull align 8 dereferenceable(80) %0, i32 noundef %6)
  br label %13

13:                                               ; preds = %2, %8
  %.0 = phi ptr [ %12, %8 ], [ null, %2 ]
  ret ptr %.0
}